target datalayout = "e-m:e-p270:32:32-p271:32:32-p272:64:64-i64:64-i128:128-f80:128-n8:16:32:64-S128"
target triple = "x86_64-unknown-linux-gnu"

%"class.rocksdb::TraceRecord" = type { ptr, i64 }
%"class.rocksdb::QueryTraceRecord" = type { %"class.rocksdb::TraceRecord" }
%"class.rocksdb::PinnableSlice" = type <{ %"class.rocksdb::Slice", %"class.rocksdb::Cleanable", %"class.std::__cxx11::basic_string", ptr, i8, [7 x i8] }>
%"class.rocksdb::Slice" = type { ptr, i64 }
%"class.rocksdb::Cleanable" = type { %"struct.rocksdb::Cleanable::Cleanup" }
%"struct.rocksdb::Cleanable::Cleanup" = type { ptr, ptr, ptr, ptr }
%"class.std::__cxx11::basic_string" = type { %"struct.std::__cxx11::basic_string<char>::_Alloc_hider", i64, %union.anon }
%"struct.std::__cxx11::basic_string<char>::_Alloc_hider" = type { ptr }
%union.anon = type { i64, [8 x i8] }
%"class.rocksdb::IteratorQueryTraceRecord" = type { %"class.rocksdb::QueryTraceRecord", %"class.rocksdb::PinnableSlice", %"class.rocksdb::PinnableSlice" }

@_ZTVN7rocksdb11TraceRecordE = unnamed_addr constant { [7 x ptr] } { [7 x ptr] [ptr null, ptr null, ptr @_ZN7rocksdb11TraceRecordD2Ev, ptr @_ZN7rocksdb11TraceRecordD0Ev, ptr @__cxa_pure_virtual, ptr @_ZNK7rocksdb11TraceRecord12GetTimestampEv, ptr @__cxa_pure_virtual] }, align 8
@.str = private unnamed_addr constant [1 x i8] zeroinitializer, align 1

; Function Attrs: mustprogress nounwind uwtable
define linkonce_odr void @_ZN7rocksdb11TraceRecordD2Ev(ptr noundef nonnull align 8 dereferenceable(16) %this) unnamed_addr #0 comdat align 2 {
entry:
  %this.addr = alloca ptr, align 8
  store ptr %this, ptr %this.addr, align 8
  ret void
}

; Function Attrs: mustprogress nounwind uwtable
define linkonce_odr noundef i64 @_ZNK7rocksdb5Slice4sizeEv(ptr noundef nonnull align 8 dereferenceable(16) %this) #0 comdat align 2 {
entry:
  %this.addr = alloca ptr, align 8
  store ptr %this, ptr %this.addr, align 8
  %this1 = load ptr, ptr %this.addr, align 8
  %size_ = getelementptr inbounds %"class.rocksdb::Slice", ptr %this1, i32 0, i32 1
  %0 = load i64, ptr %size_, align 8
  ret i64 %0
}

; Function Attrs: mustprogress nounwind uwtable
define linkonce_odr noundef ptr @_ZNK7rocksdb5Slice4dataEv(ptr noundef nonnull align 8 dereferenceable(16) %this) #0 comdat align 2 {
entry:
  %this.addr = alloca ptr, align 8
  store ptr %this, ptr %this.addr, align 8
  %this1 = load ptr, ptr %this.addr, align 8
  %data_ = getelementptr inbounds %"class.rocksdb::Slice", ptr %this1, i32 0, i32 0
  %0 = load ptr, ptr %data_, align 8
  ret ptr %0
}

; Function Attrs: mustprogress nounwind uwtable
define linkonce_odr void @_ZN7rocksdb5SliceC2Ev(ptr noundef nonnull align 8 dereferenceable(16) %this) unnamed_addr #0 comdat align 2 {
entry:
  %this.addr = alloca ptr, align 8
  store ptr %this, ptr %this.addr, align 8
  %this1 = load ptr, ptr %this.addr, align 8
  %data_ = getelementptr inbounds %"class.rocksdb::Slice", ptr %this1, i32 0, i32 0
  store ptr @.str, ptr %data_, align 8
  %size_ = getelementptr inbounds %"class.rocksdb::Slice", ptr %this1, i32 0, i32 1
  store i64 0, ptr %size_, align 8
  ret void
}

; Function Attrs: mustprogress nounwind uwtable
define void @_ZN7rocksdb11TraceRecordC2Em(ptr noundef nonnull align 8 dereferenceable(16) %this, i64 noundef %timestamp) unnamed_addr #0 align 2 {
entry:
  %this.addr = alloca ptr, align 8
  %timestamp.addr = alloca i64, align 8
  store ptr %this, ptr %this.addr, align 8
  store i64 %timestamp, ptr %timestamp.addr, align 8
  %this1 = load ptr, ptr %this.addr, align 8
  store ptr getelementptr inbounds ({ [7 x ptr] }, ptr @_ZTVN7rocksdb11TraceRecordE, i32 0, i32 0, i32 2), ptr %this1, align 8
  %timestamp_ = getelementptr inbounds %"class.rocksdb::TraceRecord", ptr %this1, i32 0, i32 1
  %0 = load i64, ptr %timestamp.addr, align 8
  store i64 %0, ptr %timestamp_, align 8
  ret void
}

; Function Attrs: mustprogress nounwind uwtable
define linkonce_odr void @_ZN7rocksdb16QueryTraceRecordD2Ev(ptr noundef nonnull align 8 dereferenceable(16) %this) unnamed_addr #0 comdat align 2 {
entry:
  %this.addr = alloca ptr, align 8
  store ptr %this, ptr %this.addr, align 8
  %this1 = load ptr, ptr %this.addr, align 8
  call void @_ZN7rocksdb11TraceRecordD2Ev(ptr noundef nonnull align 8 dereferenceable(16) %this1) #12
  ret void
}

; Function Attrs: mustprogress nounwind uwtable
define linkonce_odr void @_ZN7rocksdb13PinnableSliceD2Ev(ptr noundef nonnull align 8 dereferenceable(89) %this) unnamed_addr #0 comdat align 2 {
entry:
  %this.addr = alloca ptr, align 8
  store ptr %this, ptr %this.addr, align 8
  %this1 = load ptr, ptr %this.addr, align 8
  %self_space_ = getelementptr inbounds %"class.rocksdb::PinnableSlice", ptr %this1, i32 0, i32 2
  call void @_ZNSt7__cxx1112basic_stringIcSt11char_traitsIcESaIcEED1Ev(ptr noundef nonnull align 8 dereferenceable(32) %self_space_) #12
  %0 = getelementptr inbounds i8, ptr %this1, i64 16
  call void @_ZN7rocksdb9CleanableD2Ev(ptr noundef nonnull align 8 dereferenceable(32) %0) #12
  ret void
}

; Function Attrs: mustprogress uwtable
define linkonce_odr void @_ZN7rocksdb13PinnableSlice7PinSelfERKNS_5SliceE(ptr noundef nonnull align 8 dereferenceable(89) %this, ptr noundef nonnull align 8 dereferenceable(16) %slice) #1 comdat align 2 {
entry:
  %this.addr = alloca ptr, align 8
  %slice.addr = alloca ptr, align 8
  store ptr %this, ptr %this.addr, align 8
  store ptr %slice, ptr %slice.addr, align 8
  %this1 = load ptr, ptr %this.addr, align 8
  %buf_ = getelementptr inbounds %"class.rocksdb::PinnableSlice", ptr %this1, i32 0, i32 3
  %0 = load ptr, ptr %buf_, align 8
  %1 = load ptr, ptr %slice.addr, align 8
  %call = call noundef ptr @_ZNK7rocksdb5Slice4dataEv(ptr noundef nonnull align 8 dereferenceable(16) %1)
  %2 = load ptr, ptr %slice.addr, align 8
  %call2 = call noundef i64 @_ZNK7rocksdb5Slice4sizeEv(ptr noundef nonnull align 8 dereferenceable(16) %2)
  %call3 = call noundef nonnull align 8 dereferenceable(32) ptr @_ZNSt7__cxx1112basic_stringIcSt11char_traitsIcESaIcEE6assignEPKcm(ptr noundef nonnull align 8 dereferenceable(32) %0, ptr noundef %call, i64 noundef %call2)
  %buf_4 = getelementptr inbounds %"class.rocksdb::PinnableSlice", ptr %this1, i32 0, i32 3
  %3 = load ptr, ptr %buf_4, align 8
  %call5 = call noundef ptr @_ZNSt7__cxx1112basic_stringIcSt11char_traitsIcESaIcEE4dataEv(ptr noundef nonnull align 8 dereferenceable(32) %3) #12
  %data_ = getelementptr inbounds %"class.rocksdb::Slice", ptr %this1, i32 0, i32 0
  store ptr %call5, ptr %data_, align 8
  %buf_6 = getelementptr inbounds %"class.rocksdb::PinnableSlice", ptr %this1, i32 0, i32 3
  %4 = load ptr, ptr %buf_6, align 8
  %call7 = call noundef i64 @_ZNKSt7__cxx1112basic_stringIcSt11char_traitsIcESaIcEE4sizeEv(ptr noundef nonnull align 8 dereferenceable(32) %4) #12
  %size_ = getelementptr inbounds %"class.rocksdb::Slice", ptr %this1, i32 0, i32 1
  store i64 %call7, ptr %size_, align 8
  ret void
}

; Function Attrs: mustprogress nounwind uwtable
define linkonce_odr void @_ZN7rocksdb5SliceC2ERKNSt7__cxx1112basic_stringIcSt11char_traitsIcESaIcEEE(ptr noundef nonnull align 8 dereferenceable(16) %this, ptr noundef nonnull align 8 dereferenceable(32) %s) unnamed_addr #0 comdat align 2 {
entry:
  %this.addr = alloca ptr, align 8
  %s.addr = alloca ptr, align 8
  store ptr %this, ptr %this.addr, align 8
  store ptr %s, ptr %s.addr, align 8
  %this1 = load ptr, ptr %this.addr, align 8
  %data_ = getelementptr inbounds %"class.rocksdb::Slice", ptr %this1, i32 0, i32 0
  %0 = load ptr, ptr %s.addr, align 8
  %call = call noundef ptr @_ZNKSt7__cxx1112basic_stringIcSt11char_traitsIcESaIcEE4dataEv(ptr noundef nonnull align 8 dereferenceable(32) %0) #12
  store ptr %call, ptr %data_, align 8
  %size_ = getelementptr inbounds %"class.rocksdb::Slice", ptr %this1, i32 0, i32 1
  %1 = load ptr, ptr %s.addr, align 8
  %call2 = call noundef i64 @_ZNKSt7__cxx1112basic_stringIcSt11char_traitsIcESaIcEE4sizeEv(ptr noundef nonnull align 8 dereferenceable(32) %1) #12
  store i64 %call2, ptr %size_, align 8
  ret void
}

; Function Attrs: mustprogress uwtable
define linkonce_odr void @_ZN7rocksdb13PinnableSliceC2Ev(ptr noundef nonnull align 8 dereferenceable(89) %this) unnamed_addr #1 comdat align 2 {
entry:
  %this.addr = alloca ptr, align 8
  store ptr %this, ptr %this.addr, align 8
  %this1 = load ptr, ptr %this.addr, align 8
  call void @_ZN7rocksdb5SliceC2Ev(ptr noundef nonnull align 8 dereferenceable(16) %this1)
  %0 = getelementptr inbounds i8, ptr %this1, i64 16
  call void @_ZN7rocksdb9CleanableC2Ev(ptr noundef nonnull align 8 dereferenceable(32) %0)
  %self_space_ = getelementptr inbounds %"class.rocksdb::PinnableSlice", ptr %this1, i32 0, i32 2
  call void @_ZNSt7__cxx1112basic_stringIcSt11char_traitsIcESaIcEEC1Ev(ptr noundef nonnull align 8 dereferenceable(32) %self_space_) #12
  %pinned_ = getelementptr inbounds %"class.rocksdb::PinnableSlice", ptr %this1, i32 0, i32 4
  store i8 0, ptr %pinned_, align 8
  %self_space_2 = getelementptr inbounds %"class.rocksdb::PinnableSlice", ptr %this1, i32 0, i32 2
  %buf_ = getelementptr inbounds %"class.rocksdb::PinnableSlice", ptr %this1, i32 0, i32 3
  store ptr %self_space_2, ptr %buf_, align 8
  ret void
}

; Function Attrs: mustprogress nounwind uwtable
define void @_ZN7rocksdb16QueryTraceRecordC2Em(ptr noundef nonnull align 8 dereferenceable(16) %this, i64 noundef %timestamp) unnamed_addr #0 align 2 {
entry:
  %this.addr = alloca ptr, align 8
  %timestamp.addr = alloca i64, align 8
  store ptr %this, ptr %this.addr, align 8
  store i64 %timestamp, ptr %timestamp.addr, align 8
  %this1 = load ptr, ptr %this.addr, align 8
  %0 = load i64, ptr %timestamp.addr, align 8
  call void @_ZN7rocksdb11TraceRecordC2Em(ptr noundef nonnull align 8 dereferenceable(16) %this1, i64 noundef %0)
  store ptr getelementptr inbounds ({ [7 x ptr] }, ptr @_ZTVN7rocksdb16QueryTraceRecordE, i32 0, i32 0, i32 2), ptr %this1, align 8
  ret void
}

; Function Attrs: mustprogress uwtable
define void @_ZN7rocksdb24IteratorQueryTraceRecordC2ERKNSt7__cxx1112basic_stringIcSt11char_traitsIcESaIcEEES8_m(ptr noundef nonnull align 8 dereferenceable(208) %this, ptr noundef nonnull align 8 dereferenceable(32) %lower_bound, ptr noundef nonnull align 8 dereferenceable(32) %upper_bound, i64 noundef %timestamp) unnamed_addr #1 align 2 personality ptr @__gxx_personality_v0 {
entry:
  %this.addr = alloca ptr, align 8
  %lower_bound.addr = alloca ptr, align 8
  %upper_bound.addr = alloca ptr, align 8
  %timestamp.addr = alloca i64, align 8
  %exn.slot = alloca ptr, align 8
  %ehselector.slot = alloca i32, align 4
  %ref.tmp = alloca %"class.rocksdb::Slice", align 8
  %ref.tmp9 = alloca %"class.rocksdb::Slice", align 8
  store ptr %this, ptr %this.addr, align 8
  store ptr %lower_bound, ptr %lower_bound.addr, align 8
  store ptr %upper_bound, ptr %upper_bound.addr, align 8
  store i64 %timestamp, ptr %timestamp.addr, align 8
  %this1 = load ptr, ptr %this.addr, align 8
  %0 = load i64, ptr %timestamp.addr, align 8
  call void @_ZN7rocksdb16QueryTraceRecordC2Em(ptr noundef nonnull align 8 dereferenceable(16) %this1, i64 noundef %0)
  store ptr getelementptr inbounds ({ [9 x ptr] }, ptr @_ZTVN7rocksdb24IteratorQueryTraceRecordE, i32 0, i32 0, i32 2), ptr %this1, align 8
  %lower_ = getelementptr inbounds %"class.rocksdb::IteratorQueryTraceRecord", ptr %this1, i32 0, i32 1
  invoke void @_ZN7rocksdb13PinnableSliceC2Ev(ptr noundef nonnull align 8 dereferenceable(89) %lower_)
          to label %invoke.cont unwind label %lpad

invoke.cont:                                      ; preds = %entry
  %upper_ = getelementptr inbounds %"class.rocksdb::IteratorQueryTraceRecord", ptr %this1, i32 0, i32 2
  invoke void @_ZN7rocksdb13PinnableSliceC2Ev(ptr noundef nonnull align 8 dereferenceable(89) %upper_)
          to label %invoke.cont3 unwind label %lpad2

invoke.cont3:                                     ; preds = %invoke.cont
  %lower_4 = getelementptr inbounds %"class.rocksdb::IteratorQueryTraceRecord", ptr %this1, i32 0, i32 1
  %1 = load ptr, ptr %lower_bound.addr, align 8
  invoke void @_ZN7rocksdb5SliceC2ERKNSt7__cxx1112basic_stringIcSt11char_traitsIcESaIcEEE(ptr noundef nonnull align 8 dereferenceable(16) %ref.tmp, ptr noundef nonnull align 8 dereferenceable(32) %1)
          to label %invoke.cont6 unwind label %lpad5

invoke.cont6:                                     ; preds = %invoke.cont3
  invoke void @_ZN7rocksdb13PinnableSlice7PinSelfERKNS_5SliceE(ptr noundef nonnull align 8 dereferenceable(89) %lower_4, ptr noundef nonnull align 8 dereferenceable(16) %ref.tmp)
          to label %invoke.cont7 unwind label %lpad5

invoke.cont7:                                     ; preds = %invoke.cont6
  %upper_8 = getelementptr inbounds %"class.rocksdb::IteratorQueryTraceRecord", ptr %this1, i32 0, i32 2
  %2 = load ptr, ptr %upper_bound.addr, align 8
  invoke void @_ZN7rocksdb5SliceC2ERKNSt7__cxx1112basic_stringIcSt11char_traitsIcESaIcEEE(ptr noundef nonnull align 8 dereferenceable(16) %ref.tmp9, ptr noundef nonnull align 8 dereferenceable(32) %2)
          to label %invoke.cont10 unwind label %lpad5

invoke.cont10:                                    ; preds = %invoke.cont7
  invoke void @_ZN7rocksdb13PinnableSlice7PinSelfERKNS_5SliceE(ptr noundef nonnull align 8 dereferenceable(89) %upper_8, ptr noundef nonnull align 8 dereferenceable(16) %ref.tmp9)
          to label %invoke.cont11 unwind label %lpad5

invoke.cont11:                                    ; preds = %invoke.cont10
  ret void

lpad:                                             ; preds = %entry
  %3 = landingpad { ptr, i32 }
          cleanup
  %4 = extractvalue { ptr, i32 } %3, 0
  store ptr %4, ptr %exn.slot, align 8
  %5 = extractvalue { ptr, i32 } %3, 1
  store i32 %5, ptr %ehselector.slot, align 4
  br label %ehcleanup12

lpad2:                                            ; preds = %invoke.cont
  %6 = landingpad { ptr, i32 }
          cleanup
  %7 = extractvalue { ptr, i32 } %6, 0
  store ptr %7, ptr %exn.slot, align 8
  %8 = extractvalue { ptr, i32 } %6, 1
  store i32 %8, ptr %ehselector.slot, align 4
  br label %ehcleanup

lpad5:                                            ; preds = %invoke.cont10, %invoke.cont7, %invoke.cont6, %invoke.cont3
  %9 = landingpad { ptr, i32 }
          cleanup
  %10 = extractvalue { ptr, i32 } %9, 0
  store ptr %10, ptr %exn.slot, align 8
  %11 = extractvalue { ptr, i32 } %9, 1
  store i32 %11, ptr %ehselector.slot, align 4
  call void @_ZN7rocksdb13PinnableSliceD2Ev(ptr noundef nonnull align 8 dereferenceable(89) %upper_) #12
  br label %ehcleanup

ehcleanup:                                        ; preds = %lpad5, %lpad2
  call void @_ZN7rocksdb13PinnableSliceD2Ev(ptr noundef nonnull align 8 dereferenceable(89) %lower_) #12
  br label %ehcleanup12

ehcleanup12:                                      ; preds = %ehcleanup, %lpad
  call void @_ZN7rocksdb16QueryTraceRecordD2Ev(ptr noundef nonnull align 8 dereferenceable(16) %this1) #12
  br label %eh.resume

eh.resume:                                        ; preds = %ehcleanup12
  %exn = load ptr, ptr %exn.slot, align 8
  %sel = load i32, ptr %ehselector.slot, align 4
  %lpad.val = insertvalue { ptr, i32 } poison, ptr %exn, 0
  %lpad.val13 = insertvalue { ptr, i32 } %lpad.val, i32 %sel, 1
  resume { ptr, i32 } %lpad.val13
}