; Function Attrs: mustprogress uwtable
define void @_ZN7rocksdb24IteratorQueryTraceRecordC2ERKNSt7__cxx1112basic_stringIcSt11char_traitsIcESaIcEEES8_m(ptr noundef nonnull align 8 dereferenceable(208) %this, ptr noundef nonnull align 8 dereferenceable(32) %lower_bound, ptr noundef nonnull align 8 dereferenceable(32) %upper_bound, i64 noundef %timestamp) unnamed_addr #2 align 2 personality ptr @__gxx_personality_v0 {
entry:
  %timestamp_.i.i = getelementptr inbounds i8, ptr %this, i64 8
  store i64 %timestamp, ptr %timestamp_.i.i, align 8
  store ptr getelementptr inbounds ({ [9 x ptr] }, ptr @_ZTVN7rocksdb24IteratorQueryTraceRecordE, i64 0, i32 0, i64 2), ptr %this, align 8
  %lower_ = getelementptr inbounds i8, ptr %this, i64 16
  store ptr @.str, ptr %lower_, align 8
  %size_.i.i = getelementptr inbounds i8, ptr %this, i64 24
  store i64 0, ptr %size_.i.i, align 8
  %0 = getelementptr inbounds i8, ptr %this, i64 32
  tail call void @_ZN7rocksdb9CleanableC2Ev(ptr noundef nonnull align 8 dereferenceable(32) %0)
  %self_space_.i = getelementptr inbounds i8, ptr %this, i64 64
  tail call void @_ZNSt7__cxx1112basic_stringIcSt11char_traitsIcESaIcEEC1Ev(ptr noundef nonnull align 8 dereferenceable(32) %self_space_.i) #17
  %pinned_.i = getelementptr inbounds i8, ptr %this, i64 104
  store i8 0, ptr %pinned_.i, align 8
  %buf_.i = getelementptr inbounds i8, ptr %this, i64 96
  store ptr %self_space_.i, ptr %buf_.i, align 8
  %upper_ = getelementptr inbounds i8, ptr %this, i64 112
  store ptr @.str, ptr %upper_, align 8
  %size_.i.i3 = getelementptr inbounds i8, ptr %this, i64 120
  store i64 0, ptr %size_.i.i3, align 8
  %1 = getelementptr inbounds i8, ptr %this, i64 128
  invoke void @_ZN7rocksdb9CleanableC2Ev(ptr noundef nonnull align 8 dereferenceable(32) %1)
          to label %invoke.cont3 unwind label %lpad2

invoke.cont3:                                     ; preds = %entry
  %self_space_.i4 = getelementptr inbounds i8, ptr %this, i64 160
  tail call void @_ZNSt7__cxx1112basic_stringIcSt11char_traitsIcESaIcEEC1Ev(ptr noundef nonnull align 8 dereferenceable(32) %self_space_.i4) #17
  %pinned_.i5 = getelementptr inbounds i8, ptr %this, i64 200
  store i8 0, ptr %pinned_.i5, align 8
  %buf_.i6 = getelementptr inbounds i8, ptr %this, i64 192
  store ptr %self_space_.i4, ptr %buf_.i6, align 8
  %call.i = tail call noundef ptr @_ZNKSt7__cxx1112basic_stringIcSt11char_traitsIcESaIcEE4dataEv(ptr noundef nonnull align 8 dereferenceable(32) %lower_bound) #17
  %call2.i = tail call noundef i64 @_ZNKSt7__cxx1112basic_stringIcSt11char_traitsIcESaIcEE4sizeEv(ptr noundef nonnull align 8 dereferenceable(32) %lower_bound) #17
  %2 = load ptr, ptr %buf_.i, align 8
  %call3.i11 = invoke noundef nonnull align 8 dereferenceable(32) ptr @_ZNSt7__cxx1112basic_stringIcSt11char_traitsIcESaIcEE6assignEPKcm(ptr noundef nonnull align 8 dereferenceable(32) %2, ptr noundef %call.i, i64 noundef %call2.i)
          to label %invoke.cont7 unwind label %lpad5

invoke.cont7:                                     ; preds = %invoke.cont3
  %3 = load ptr, ptr %buf_.i, align 8
  %call5.i = tail call noundef ptr @_ZNSt7__cxx1112basic_stringIcSt11char_traitsIcESaIcEE4dataEv(ptr noundef nonnull align 8 dereferenceable(32) %3) #17
  store ptr %call5.i, ptr %lower_, align 8
  %4 = load ptr, ptr %buf_.i, align 8
  %call7.i = tail call noundef i64 @_ZNKSt7__cxx1112basic_stringIcSt11char_traitsIcESaIcEE4sizeEv(ptr noundef nonnull align 8 dereferenceable(32) %4) #17
  store i64 %call7.i, ptr %size_.i.i, align 8
  %call.i12 = tail call noundef ptr @_ZNKSt7__cxx1112basic_stringIcSt11char_traitsIcESaIcEE4dataEv(ptr noundef nonnull align 8 dereferenceable(32) %upper_bound) #17
  %call2.i14 = tail call noundef i64 @_ZNKSt7__cxx1112basic_stringIcSt11char_traitsIcESaIcEE4sizeEv(ptr noundef nonnull align 8 dereferenceable(32) %upper_bound) #17
  %5 = load ptr, ptr %buf_.i6, align 8
  %call3.i20 = invoke noundef nonnull align 8 dereferenceable(32) ptr @_ZNSt7__cxx1112basic_stringIcSt11char_traitsIcESaIcEE6assignEPKcm(ptr noundef nonnull align 8 dereferenceable(32) %5, ptr noundef %call.i12, i64 noundef %call2.i14)
          to label %invoke.cont11 unwind label %lpad5

invoke.cont11:                                    ; preds = %invoke.cont7
  %6 = load ptr, ptr %buf_.i6, align 8
  %call5.i17 = tail call noundef ptr @_ZNSt7__cxx1112basic_stringIcSt11char_traitsIcESaIcEE4dataEv(ptr noundef nonnull align 8 dereferenceable(32) %6) #17
  store ptr %call5.i17, ptr %upper_, align 8
  %7 = load ptr, ptr %buf_.i6, align 8
  %call7.i18 = tail call noundef i64 @_ZNKSt7__cxx1112basic_stringIcSt11char_traitsIcESaIcEE4sizeEv(ptr noundef nonnull align 8 dereferenceable(32) %7) #17
  store i64 %call7.i18, ptr %size_.i.i3, align 8
  ret void

lpad2:                                            ; preds = %entry
  %8 = landingpad { ptr, i32 }
          cleanup
  br label %ehcleanup

lpad5:                                            ; preds = %invoke.cont7, %invoke.cont3
  %9 = landingpad { ptr, i32 }
          cleanup
  tail call void @_ZNSt7__cxx1112basic_stringIcSt11char_traitsIcESaIcEED1Ev(ptr noundef nonnull align 8 dereferenceable(32) %self_space_.i4) #17
  tail call void @_ZN7rocksdb9CleanableD2Ev(ptr noundef nonnull align 8 dereferenceable(32) %1) #17
  br label %ehcleanup

ehcleanup:                                        ; preds = %lpad5, %lpad2
  %.pn = phi { ptr, i32 } [ %9, %lpad5 ], [ %8, %lpad2 ]
  tail call void @_ZNSt7__cxx1112basic_stringIcSt11char_traitsIcESaIcEED1Ev(ptr noundef nonnull align 8 dereferenceable(32) %self_space_.i) #17
  tail call void @_ZN7rocksdb9CleanableD2Ev(ptr noundef nonnull align 8 dereferenceable(32) %0) #17
  resume { ptr, i32 } %.pn
}